(dp1
S'files'
p2
(dp3
S'_Users_Antoine_Documents_design3_naturalLanguagePython___init__'
p4
(dp5
S'index'
p6
(dp7
S'html_filename'
p8
S'_Users_Antoine_Documents_design3_naturalLanguagePython___init__.html'
p9
sS'name'
p10
S'C:\\Users\\Antoine\\Documents\\design3\\naturalLanguagePython\\__init__'
p11
sS'nums'
p12
ccopy_reg
_reconstructor
p13
(ccoverage.results
Numbers
p14
c__builtin__
object
p15
NtRp16
(dp17
S'n_files'
p18
I1
sS'n_branches'
p19
I0
sS'n_statements'
p20
I0
sS'n_excluded'
p21
I0
sS'n_partial_branches'
p22
I0
sS'n_missing'
p23
I0
sS'n_missing_branches'
p24
I0
sbssS'hash'
p25
S'\xca\xf5\x9f\x7f\x88\xdfa\x831|T\x1d\xbc}\xa5v'
p26
ssS'_Users_Antoine_Documents_design3_naturalLanguagePython_questionLanguageAnalyzer_questionAnalyzer'
p27
(dp28
g6
(dp29
g8
S'_Users_Antoine_Documents_design3_naturalLanguagePython_questionLanguageAnalyzer_questionAnalyzer.html'
p30
sg10
S'C:\\Users\\Antoine\\Documents\\design3\\naturalLanguagePython\\questionLanguageAnalyzer\\questionAnalyzer'
p31
sg12
g13
(g14
g15
NtRp32
(dp33
g18
I1
sg19
I0
sg20
I6
sg21
I0
sg22
I0
sg23
I1
sg24
I0
sbssg25
S':(\xcd\xe4\x8e\xed\xa8\xd4e\xbf\xde\xcb\xbd\x0e\x91\xfe'
p34
ssS'_Users_Antoine_Documents_design3_naturalLanguagePython_countryDomain_countryRepository'
p35
(dp36
g6
(dp37
g8
S'_Users_Antoine_Documents_design3_naturalLanguagePython_countryDomain_countryRepository.html'
p38
sg10
S'C:\\Users\\Antoine\\Documents\\design3\\naturalLanguagePython\\countryDomain\\countryRepository'
p39
sg12
g13
(g14
g15
NtRp40
(dp41
g18
I1
sg19
I0
sg20
I8
sg21
I0
sg22
I0
sg23
I2
sg24
I0
sbssg25
S"'\x8abj\xeb\xa8\xeaMqE\x04\xcf\x83ah\xe1"
p42
ssS'_Users_Antoine_Documents_design3_naturalLanguagePython_countryDomain_country'
p43
(dp44
g6
(dp45
g8
S'_Users_Antoine_Documents_design3_naturalLanguagePython_countryDomain_country.html'
p46
sg10
S'C:\\Users\\Antoine\\Documents\\design3\\naturalLanguagePython\\countryDomain\\country'
p47
sg12
g13
(g14
g15
NtRp48
(dp49
g18
I1
sg19
I0
sg20
I23
sg21
I0
sg22
I0
sg23
I0
sg24
I0
sbssg25
S'+z:\xe9\x1e\x11\xe4\x82\xe7o\xd2\x8c\xe3S\x96\xd8'
p50
ssS'_Users_Antoine_Documents_design3_naturalLanguagePython_countryParser_test_countryRepositoryFiller'
p51
(dp52
g6
(dp53
g8
S'_Users_Antoine_Documents_design3_naturalLanguagePython_countryParser_test_countryRepositoryFiller.html'
p54
sg10
S'C:\\Users\\Antoine\\Documents\\design3\\naturalLanguagePython\\countryParser\\test_countryRepositoryFiller'
p55
sg12
g13
(g14
g15
NtRp56
(dp57
g18
I1
sg19
I0
sg20
I86
sg21
I0
sg22
I0
sg23
I0
sg24
I0
sbssg25
S'\xb8\xce\x87.\xca\x13\xa9&\x1c\x17\xe0\x98n\x81\xc6J'
p58
ssS'_Users_Antoine_Documents_design3_naturalLanguagePython_searchInformationStrategy___init__'
p59
(dp60
g6
(dp61
g8
S'_Users_Antoine_Documents_design3_naturalLanguagePython_searchInformationStrategy___init__.html'
p62
sg10
S'C:\\Users\\Antoine\\Documents\\design3\\naturalLanguagePython\\searchInformationStrategy\\__init__'
p63
sg12
g13
(g14
g15
NtRp64
(dp65
g18
I1
sg19
I0
sg20
I1
sg21
I0
sg22
I0
sg23
I0
sg24
I0
sbssg25
S'\x13eji\xe6\xa7\xd9H\x8a\xe9\x88\xe8\x80\xff\xfa\x00'
p66
ssS'_Users_Antoine_Documents_design3_naturalLanguagePython_countryPersistence_test_countryRepositoryDB'
p67
(dp68
g6
(dp69
g8
S'_Users_Antoine_Documents_design3_naturalLanguagePython_countryPersistence_test_countryRepositoryDB.html'
p70
sg10
S'C:\\Users\\Antoine\\Documents\\design3\\naturalLanguagePython\\countryPersistence\\test_countryRepositoryDB'
p71
sg12
g13
(g14
g15
NtRp72
(dp73
g18
I1
sg19
I0
sg20
I47
sg21
I0
sg22
I0
sg23
I0
sg24
I0
sbssg25
S'\xcc\xd1F\x98^,>\x85\x12\t\x12\x99\xea\x82\ty'
p74
ssS'_Users_Antoine_Documents_design3_naturalLanguagePython_searchInformationStrategy_test_searchStrategyFactory'
p75
(dp76
g6
(dp77
g8
S'_Users_Antoine_Documents_design3_naturalLanguagePython_searchInformationStrategy_test_searchStrategyFactory.html'
p78
sg10
S'C:\\Users\\Antoine\\Documents\\design3\\naturalLanguagePython\\searchInformationStrategy\\test_searchStrategyFactory'
p79
sg12
g13
(g14
g15
NtRp80
(dp81
g18
I1
sg19
I0
sg20
I21
sg21
I0
sg22
I0
sg23
I0
sg24
I0
sbssg25
S'\x9ao\x1e\x94\xf0b\xe8\xf0z\x10Y\xfd\x0f\x87q\xe0'
p82
ssS'_Users_Antoine_Documents_design3_naturalLanguagePython_countryPersistence___init__'
p83
(dp84
g6
(dp85
g8
S'_Users_Antoine_Documents_design3_naturalLanguagePython_countryPersistence___init__.html'
p86
sg10
S'C:\\Users\\Antoine\\Documents\\design3\\naturalLanguagePython\\countryPersistence\\__init__'
p87
sg12
g13
(g14
g15
NtRp88
(dp89
g18
I1
sg19
I0
sg20
I1
sg21
I0
sg22
I0
sg23
I0
sg24
I0
sbssg25
S'\x13eji\xe6\xa7\xd9H\x8a\xe9\x88\xe8\x80\xff\xfa\x00'
p90
ssS'_Users_Antoine_Documents_design3_naturalLanguagePython_countryService_searchStrategyServiceFactory'
p91
(dp92
g6
(dp93
g8
S'_Users_Antoine_Documents_design3_naturalLanguagePython_countryService_searchStrategyServiceFactory.html'
p94
sg10
S'C:\\Users\\Antoine\\Documents\\design3\\naturalLanguagePython\\countryService\\searchStrategyServiceFactory'
p95
sg12
g13
(g14
g15
NtRp96
(dp97
g18
I1
sg19
I0
sg20
I23
sg21
I0
sg22
I0
sg23
I0
sg24
I0
sbssg25
S'\xa8n\xf8\x17\x81x\xb2\xa0n2\xf2w\xd2\x13g\xc6'
p98
ssS'_Users_Antoine_Documents_design3_naturalLanguagePython_countryDomain_test_country'
p99
(dp100
g6
(dp101
g8
S'_Users_Antoine_Documents_design3_naturalLanguagePython_countryDomain_test_country.html'
p102
sg10
S'C:\\Users\\Antoine\\Documents\\design3\\naturalLanguagePython\\countryDomain\\test_country'
p103
sg12
g13
(g14
g15
NtRp104
(dp105
g18
I1
sg19
I0
sg20
I54
sg21
I0
sg22
I0
sg23
I0
sg24
I0
sbssg25
S'\xd0\xea\x93n\xe0\xae\x1c]\xd1hu\x9e\x87\xd6\xa1\x82'
p106
ssS'_Users_Antoine_Documents_design3_naturalLanguagePython_questionLanguageAnalyzer___init__'
p107
(dp108
g6
(dp109
g8
S'_Users_Antoine_Documents_design3_naturalLanguagePython_questionLanguageAnalyzer___init__.html'
p110
sg10
S'C:\\Users\\Antoine\\Documents\\design3\\naturalLanguagePython\\questionLanguageAnalyzer\\__init__'
p111
sg12
g13
(g14
g15
NtRp112
(dp113
g18
I1
sg19
I0
sg20
I1
sg21
I0
sg22
I0
sg23
I0
sg24
I0
sbssg25
S'\x13eji\xe6\xa7\xd9H\x8a\xe9\x88\xe8\x80\xff\xfa\x00'
p114
ssS'_Users_Antoine_Documents_design3_naturalLanguagePython_htmlExtractor_htmlInformationValidator'
p115
(dp116
g6
(dp117
g8
S'_Users_Antoine_Documents_design3_naturalLanguagePython_htmlExtractor_htmlInformationValidator.html'
p118
sg10
S'C:\\Users\\Antoine\\Documents\\design3\\naturalLanguagePython\\htmlExtractor\\htmlInformationValidator'
p119
sg12
g13
(g14
g15
NtRp120
(dp121
g18
I1
sg19
I0
sg20
I13
sg21
I0
sg22
I0
sg23
I0
sg24
I0
sbssg25
S'\xb5\xec\xad\x11\xbf\t\xdf\x07C;.\xba\x80\x10\x9a@'
p122
ssS'_Users_Antoine_Documents_design3_naturalLanguagePython_searchInformationStrategy_searchStrategyFactory'
p123
(dp124
g6
(dp125
g8
S'_Users_Antoine_Documents_design3_naturalLanguagePython_searchInformationStrategy_searchStrategyFactory.html'
p126
sg10
S'C:\\Users\\Antoine\\Documents\\design3\\naturalLanguagePython\\searchInformationStrategy\\searchStrategyFactory'
p127
sg12
g13
(g14
g15
NtRp128
(dp129
g18
I1
sg19
I0
sg20
I15
sg21
I0
sg22
I0
sg23
I0
sg24
I0
sbssg25
S'H\x9bU\xebrr\xc7\xe6\xde\xbd\xcb*Eq\xe9R'
p130
ssS'_Users_Antoine_Documents_design3_naturalLanguagePython_countryService_countryService'
p131
(dp132
g6
(dp133
S'html_filename'
p134
S'_Users_Antoine_Documents_design3_naturalLanguagePython_countryService_countryService.html'
p135
sS'name'
p136
S'C:\\Users\\Antoine\\Documents\\design3\\naturalLanguagePython\\countryService\\countryService'
p137
sS'nums'
p138
g13
(g14
g15
NtRp139
(dp140
g18
I1
sg19
I0
sg20
I40
sg21
I0
sg22
I0
sg23
I0
sg24
I0
sbssg25
S'\xe0\xd8WbP\xf8i\xb5\xe1}\xc6\xfa\xb9[b4'
p141
ssS'_Users_Antoine_Documents_design3_naturalLanguagePython_htmlExtractor_test_htmlInformationValidator'
p142
(dp143
g6
(dp144
g8
S'_Users_Antoine_Documents_design3_naturalLanguagePython_htmlExtractor_test_htmlInformationValidator.html'
p145
sg10
S'C:\\Users\\Antoine\\Documents\\design3\\naturalLanguagePython\\htmlExtractor\\test_htmlInformationValidator'
p146
sg12
g13
(g14
g15
NtRp147
(dp148
g18
I1
sg19
I0
sg20
I38
sg21
I0
sg22
I0
sg23
I0
sg24
I0
sbssg25
S'\xe9\x0bB\xd5\x10\xc8g3\xad \x91He\xc5>}'
p149
ssS'_Users_Antoine_Documents_design3_naturalLanguagePython_searchInformationStrategy_searchEndsWith'
p150
(dp151
g6
(dp152
g8
S'_Users_Antoine_Documents_design3_naturalLanguagePython_searchInformationStrategy_searchEndsWith.html'
p153
sg10
S'C:\\Users\\Antoine\\Documents\\design3\\naturalLanguagePython\\searchInformationStrategy\\searchEndsWith'
p154
sg12
g13
(g14
g15
NtRp155
(dp156
g18
I1
sg19
I0
sg20
I5
sg21
I0
sg22
I0
sg23
I1
sg24
I0
sbssg25
S'{J-m\xac\xee4\xc0W\x99\x9b\x986I\xa6-'
p157
ssS'_Users_Antoine_Documents_design3_naturalLanguagePython_htmlExtractor___init__'
p158
(dp159
g6
(dp160
g8
S'_Users_Antoine_Documents_design3_naturalLanguagePython_htmlExtractor___init__.html'
p161
sg10
S'C:\\Users\\Antoine\\Documents\\design3\\naturalLanguagePython\\htmlExtractor\\__init__'
p162
sg12
g13
(g14
g15
NtRp163
(dp164
g18
I1
sg19
I0
sg20
I1
sg21
I0
sg22
I0
sg23
I0
sg24
I0
sbssg25
S'\x13eji\xe6\xa7\xd9H\x8a\xe9\x88\xe8\x80\xff\xfa\x00'
p165
ssS'_Users_Antoine_Documents_design3_naturalLanguagePython_countryService___init__'
p166
(dp167
g6
(dp168
g8
S'_Users_Antoine_Documents_design3_naturalLanguagePython_countryService___init__.html'
p169
sg10
S'C:\\Users\\Antoine\\Documents\\design3\\naturalLanguagePython\\countryService\\__init__'
p170
sg12
g13
(g14
g15
NtRp171
(dp172
g18
I1
sg19
I0
sg20
I1
sg21
I0
sg22
I0
sg23
I0
sg24
I0
sbssg25
S'\x13eji\xe6\xa7\xd9H\x8a\xe9\x88\xe8\x80\xff\xfa\x00'
p173
ssS'_Users_Antoine_Documents_design3_naturalLanguagePython_countryDomain___init__'
p174
(dp175
g6
(dp176
g8
S'_Users_Antoine_Documents_design3_naturalLanguagePython_countryDomain___init__.html'
p177
sg10
S'C:\\Users\\Antoine\\Documents\\design3\\naturalLanguagePython\\countryDomain\\__init__'
p178
sg12
g13
(g14
g15
NtRp179
(dp180
g18
I1
sg19
I0
sg20
I0
sg21
I0
sg22
I0
sg23
I0
sg24
I0
sbssg25
S'\xca\xf5\x9f\x7f\x88\xdfa\x831|T\x1d\xbc}\xa5v'
p181
ssS'_Users_Antoine_Documents_design3_naturalLanguagePython_htmlExtractor_htmlInformationFormatter'
p182
(dp183
g6
(dp184
g8
S'_Users_Antoine_Documents_design3_naturalLanguagePython_htmlExtractor_htmlInformationFormatter.html'
p185
sg10
S'C:\\Users\\Antoine\\Documents\\design3\\naturalLanguagePython\\htmlExtractor\\htmlInformationFormatter'
p186
sg12
g13
(g14
g15
NtRp187
(dp188
g18
I1
sg19
I0
sg20
I17
sg21
I0
sg22
I0
sg23
I0
sg24
I0
sbssg25
S'}\t\x7f\xd4d\x1e\xb3,\xcdp1\xc4\xb1\xa8\xcd\xd3'
p189
ssS'_Users_Antoine_Documents_design3_naturalLanguagePython_searchInformationStrategy_searchContains'
p190
(dp191
g6
(dp192
g8
S'_Users_Antoine_Documents_design3_naturalLanguagePython_searchInformationStrategy_searchContains.html'
p193
sg10
S'C:\\Users\\Antoine\\Documents\\design3\\naturalLanguagePython\\searchInformationStrategy\\searchContains'
p194
sg12
g13
(g14
g15
NtRp195
(dp196
g18
I1
sg19
I0
sg20
I5
sg21
I0
sg22
I0
sg23
I1
sg24
I0
sbssg25
S'\xed\\\x12\x93\xf7\xe0\x06\xc3\xd3\x96\xc0\xd0\xf7\xa8\xf1='
p197
ssS'_Users_Antoine_Documents_design3_naturalLanguagePython_searchInformationStrategy_test_searchInformation'
p198
(dp199
g6
(dp200
g8
S'_Users_Antoine_Documents_design3_naturalLanguagePython_searchInformationStrategy_test_searchInformation.html'
p201
sg10
S'C:\\Users\\Antoine\\Documents\\design3\\naturalLanguagePython\\searchInformationStrategy\\test_searchInformation'
p202
sg12
g13
(g14
g15
NtRp203
(dp204
g18
I1
sg19
I0
sg20
I56
sg21
I0
sg22
I0
sg23
I0
sg24
I0
sbssg25
S'Iu55;\xe5\x80^\xa9\xc7\xe0($\x85\xf4*'
p205
ssS'_Users_Antoine_Documents_design3_naturalLanguagePython_searchInformationStrategy_searchInformation'
p206
(dp207
g6
(dp208
g8
S'_Users_Antoine_Documents_design3_naturalLanguagePython_searchInformationStrategy_searchInformation.html'
p209
sg10
S'C:\\Users\\Antoine\\Documents\\design3\\naturalLanguagePython\\searchInformationStrategy\\searchInformation'
p210
sg12
g13
(g14
g15
NtRp211
(dp212
g18
I1
sg19
I0
sg20
I17
sg21
I0
sg22
I0
sg23
I0
sg24
I0
sbssg25
S'o.\x06.\x1clt\xcb\xed\x94\xb5\xdfO\x11\xb2\xef'
p213
ssS'_Users_Antoine_Documents_design3_naturalLanguagePython_countryService_countryServiceException'
p214
(dp215
g6
(dp216
g8
S'_Users_Antoine_Documents_design3_naturalLanguagePython_countryService_countryServiceException.html'
p217
sg10
S'C:\\Users\\Antoine\\Documents\\design3\\naturalLanguagePython\\countryService\\countryServiceException'
p218
sg12
g13
(g14
g15
NtRp219
(dp220
g18
I1
sg19
I0
sg20
I3
sg21
I0
sg22
I0
sg23
I0
sg24
I0
sbssg25
S'\xef]nf$\xd1\x8a\xc48e\x06\xc9\x85\x07\x04\xe1'
p221
ssS'_Users_Antoine_Documents_design3_naturalLanguagePython_countryParser_countryRepositoryFiller'
p222
(dp223
g6
(dp224
S'html_filename'
p225
S'_Users_Antoine_Documents_design3_naturalLanguagePython_countryParser_countryRepositoryFiller.html'
p226
sS'name'
p227
S'C:\\Users\\Antoine\\Documents\\design3\\naturalLanguagePython\\countryParser\\countryRepositoryFiller'
p228
sS'nums'
p229
g13
(g14
g15
NtRp230
(dp231
g18
I1
sg19
I0
sg20
I17
sg21
I0
sg22
I0
sg23
I0
sg24
I0
sbssg25
S'h`\x96\x89E\xa7kII2\xbc=\xcd\xf6+p'
p232
ssS'_Users_Antoine_Documents_design3_naturalLanguagePython_countryService_test_countryService'
p233
(dp234
g6
(dp235
g8
S'_Users_Antoine_Documents_design3_naturalLanguagePython_countryService_test_countryService.html'
p236
sg10
S'C:\\Users\\Antoine\\Documents\\design3\\naturalLanguagePython\\countryService\\test_countryService'
p237
sg12
g13
(g14
g15
NtRp238
(dp239
g18
I1
sg19
I0
sg20
I61
sg21
I0
sg22
I0
sg23
I0
sg24
I0
sbssg25
S'c\r\xe1\xbd<\xd2\x94\xe8\x140w\x11\xc0\xb5\xd4w'
p240
ssS'_Users_Antoine_Documents_design3_naturalLanguagePython_countryParser___init__'
p241
(dp242
g6
(dp243
g8
S'_Users_Antoine_Documents_design3_naturalLanguagePython_countryParser___init__.html'
p244
sg10
S'C:\\Users\\Antoine\\Documents\\design3\\naturalLanguagePython\\countryParser\\__init__'
p245
sg12
g13
(g14
g15
NtRp246
(dp247
g18
I1
sg19
I0
sg20
I1
sg21
I0
sg22
I0
sg23
I0
sg24
I0
sbssg25
S'\x13eji\xe6\xa7\xd9H\x8a\xe9\x88\xe8\x80\xff\xfa\x00'
p248
ssS'_Users_Antoine_Documents_design3_naturalLanguagePython_htmlExtractor_test_htmlInformationFormatter'
p249
(dp250
g6
(dp251
g8
S'_Users_Antoine_Documents_design3_naturalLanguagePython_htmlExtractor_test_htmlInformationFormatter.html'
p252
sg10
S'C:\\Users\\Antoine\\Documents\\design3\\naturalLanguagePython\\htmlExtractor\\test_htmlInformationFormatter'
p253
sg12
g13
(g14
g15
NtRp254
(dp255
g18
I1
sg19
I0
sg20
I20
sg21
I0
sg22
I0
sg23
I0
sg24
I0
sbssg25
S'\x8f\xc3\xb2\xe7:|\x0c\x07\x0c=<e\x99\x18$\xbf'
p256
ssS'_Users_Antoine_Documents_design3_naturalLanguagePython_searchInformationStrategy_searchStartsWith'
p257
(dp258
g6
(dp259
g8
S'_Users_Antoine_Documents_design3_naturalLanguagePython_searchInformationStrategy_searchStartsWith.html'
p260
sg10
S'C:\\Users\\Antoine\\Documents\\design3\\naturalLanguagePython\\searchInformationStrategy\\searchStartsWith'
p261
sg12
g13
(g14
g15
NtRp262
(dp263
g18
I1
sg19
I0
sg20
I5
sg21
I0
sg22
I0
sg23
I1
sg24
I0
sbssg25
S'T0G\x95\xa7\xb5e\xd8\xa2e\xd4}\xc2\xf8\xe5.'
p264
ssS'_Users_Antoine_Documents_design3_naturalLanguagePython_countryPersistence_countryRepositoryDB'
p265
(dp266
g6
(dp267
g8
S'_Users_Antoine_Documents_design3_naturalLanguagePython_countryPersistence_countryRepositoryDB.html'
p268
sg10
S'C:\\Users\\Antoine\\Documents\\design3\\naturalLanguagePython\\countryPersistence\\countryRepositoryDB'
p269
sg12
g13
(g14
g15
NtRp270
(dp271
g18
I1
sg19
I0
sg20
I17
sg21
I0
sg22
I0
sg23
I0
sg24
I0
sbssg25
S'\xe9\xb1Lf\xfc:\xb3\xaaCKO\xc1:\xfe\xa4\x98'
p272
sssS'version'
p273
S'3.7.1'
p274
sS'settings'
p275
S'\xa4\x968\xe4\xf4Z\\\x113\xaf\xa8\x82\xd7\xa2\x8c\x0e'
p276
sS'format'
p277
I1
s.